(dp0
S'rc125_edit'
p1
(dp2
S'position'
p3
(I51
I97
tp4
sS'window_size'
p5
(I766
I600
tp6
ssS'rc167_edit'
p7
(dp8
S'position'
p9
(I0
I0
tp10
sS'window_size'
p11
(I567
I600
tp12
ssS'rc_hide_preptimeLabel'
p13
I01
sS'rc173_edit'
p14
(dp15
S'position'
p16
(I0
I0
tp17
sS'window_size'
p18
(I567
I600
tp19
ssS'rc161_edit'
p20
(dp21
S'position'
p22
(I0
I0
tp23
sS'window_size'
p24
(I567
I600
tp25
ssS'rc139'
p26
(dp27
S'position'
p28
(I0
I0
tp29
sS'window_size'
p30
(I730
I550
tp31
ssS'rc136'
p32
(dp33
S'position'
p34
(I0
I0
tp35
sS'window_size'
p36
(I730
I550
tp37
ssS'rc137'
p38
(dp39
S'position'
p40
(I0
I0
tp41
sS'window_size'
p42
(I730
I550
tp43
ssS'rc92_edit'
p44
(dp45
S'position'
p46
(I0
I0
tp47
sS'window_size'
p48
(I567
I600
tp49
ssS'rc135'
p50
(dp51
S'position'
p52
(I0
I0
tp53
sS'window_size'
p54
(I730
I550
tp55
ssS'rc132'
p56
(dp57
S'position'
p58
(I0
I0
tp59
sS'window_size'
p60
(I730
I550
tp61
ssS'rc133'
p62
(dp63
S'position'
p64
(I0
I0
tp65
sS'window_size'
p66
(I730
I550
tp67
ssS'shopvpaned1'
p68
(dp69
S'position'
p70
I176
ssS'rc131'
p71
(dp72
S'position'
p73
(I0
I0
tp74
sS'window_size'
p75
(I730
I550
tp76
ssS'rc142_edit'
p77
(dp78
S'position'
p79
(I0
I0
tp80
sS'window_size'
p81
(I567
I600
tp82
ssS'sautTog'
p83
(dp84
S'active'
p85
I01
ssS'rc6_edit'
p86
(dp87
S'position'
p88
(I0
I0
tp89
sS'window_size'
p90
(I800
I500
tp91
ssS'rc24'
p92
(dp93
g3
(I0
I0
tp94
sg5
(I730
I550
tp95
ssS'rc136_edit'
p96
(dp97
g34
(I0
I0
tp98
sg36
(I567
I600
tp99
ssS'rc192_edit'
p100
(dp101
S'position'
p102
(I84
I519
tp103
sS'window_size'
p104
(I500
I600
tp105
ssS'rc164_edit'
p106
(dp107
S'position'
p108
(I0
I0
tp109
sS'window_size'
p110
(I567
I600
tp111
ssS'rc179_edit'
p112
(dp113
S'position'
p114
(I0
I0
tp115
sS'window_size'
p116
(I567
I600
tp117
ssS'rc147'
p118
(dp119
S'position'
p120
(I0
I0
tp121
sS'window_size'
p122
(I730
I550
tp123
ssS'rc143_edit'
p124
(dp125
S'position'
p126
(I0
I0
tp127
sS'window_size'
p128
(I567
I600
tp129
ssS'rc36_edit'
p130
(dp131
S'position'
p132
(I482
I130
tp133
sS'window_size'
p134
(I509
I543
tp135
ssS'rc30_edit'
p136
(dp137
S'position'
p138
(I4
I49
tp139
sS'window_size'
p140
(I567
I600
tp141
ssS'rec_import_directory'
p142
S'/home/lfrb/grm/src/tests/recipe_files'
p143
sS'edit'
p144
(dp145
S'position'
p146
(I4
I49
tp147
sS'window_size'
p148
(I500
I600
tp149
ssS'rc34_edit'
p150
(dp151
S'position'
p152
(I4
I49
tp153
sS'window_size'
p154
(I567
I600
tp155
ssS'rc39_edit'
p156
(dp157
S'position'
p158
(I0
I0
tp159
sS'window_size'
p160
(I567
I600
tp161
ssS'rc184_edit'
p162
(dp163
S'position'
p164
(I0
I0
tp165
sS'window_size'
p166
(I567
I600
tp167
ssS'rc134_edit'
p168
(dp169
S'position'
p170
(I0
I0
tp171
sS'window_size'
p172
(I567
I600
tp173
ssS'rc138'
p174
(dp175
S'position'
p176
(I0
I0
tp177
sS'window_size'
p178
(I730
I550
tp179
ssS'rc11_edit'
p180
(dp181
S'position'
p182
(I0
I0
tp183
sS'window_size'
p184
(I605
I600
tp185
ssS'rc10_edit'
p186
(dp187
S'position'
p188
(I0
I0
tp189
sS'window_size'
p190
(I378
I400
tp191
ssS'rectree_hidden_columns'
p192
(lp193
S'Rating'
p194
aS'Source'
p195
aS'Website'
p196
aS'Servings'
p197
aS'Preparation Time'
p198
aS'Cooking Time'
p199
asS'rc177_edit'
p200
(dp201
S'position'
p202
(I0
I0
tp203
sS'window_size'
p204
(I567
I600
tp205
ssS'rc165_edit'
p206
(dp207
S'position'
p208
(I0
I0
tp209
sS'window_size'
p210
(I567
I600
tp211
ssS'rc134'
p212
(dp213
g170
(I0
I0
tp214
sg172
(I730
I550
tp215
ssS'rc147_edit'
p216
(dp217
g120
(I0
I0
tp218
sg122
(I567
I600
tp219
ssS'rc_hide_cuisineLabel'
p220
I01
sS'rc25_edit'
p221
(dp222
g3
(I4
I49
tp223
sg5
(I478
I535
tp224
ssS'rc23_edit'
p225
(dp226
g3
(I0
I0
tp227
sg5
(I570
I480
tp228
ssS'rc166'
p229
(dp230
g64
(I0
I0
tp231
sg66
(I730
I550
tp232
ssS'rc122_edit'
p233
(dp234
g102
(I178
I533
tp235
sg104
(I838
I600
tp236
ssS'rc180_edit'
p237
(dp238
S'position'
p239
(I0
I0
tp240
sS'window_size'
p241
(I567
I600
tp242
ssS'rc186_edit'
p243
(dp244
S'position'
p245
(I0
I0
tp246
sS'window_size'
p247
(I608
I600
tp248
ssS'rc163_edit'
p249
(dp250
S'position'
p251
(I0
I0
tp252
sS'window_size'
p253
(I567
I600
tp254
ssS'rc161'
p255
(dp256
g22
(I0
I0
tp257
sg24
(I730
I550
tp258
ssS'rc163'
p259
(dp260
g251
(I0
I0
tp261
sg253
(I730
I550
tp262
ssS'rc165'
p263
(dp264
g208
(I0
I0
tp265
sg210
(I730
I550
tp266
ssS'rc164'
p267
(dp268
g108
(I0
I0
tp269
sg110
(I730
I550
tp270
ssS'rc167'
p271
(dp272
g9
(I0
I0
tp273
sg11
(I730
I550
tp274
ssS'rc139_edit'
p275
(dp276
g28
(I0
I0
tp277
sg30
(I567
I600
tp278
ssS'rc169'
p279
(dp280
S'position'
p281
(I0
I0
tp282
sS'window_size'
p283
(I730
I550
tp284
ssS'rc135_edit'
p285
(dp286
g52
(I0
I0
tp287
sg54
(I567
I600
tp288
ssS'rc132_edit'
p289
(dp290
g58
(I0
I0
tp291
sg60
(I567
I600
tp292
ssS'rc127_edit'
p293
(dp294
S'position'
p295
(I0
I0
tp296
sS'window_size'
p297
(I567
I600
tp298
ssS'rc158_edit'
p299
(dp300
S'position'
p301
(I0
I0
tp302
sS'window_size'
p303
(I567
I600
tp304
ssS'rc138_edit'
p305
(dp306
g176
(I0
I0
tp307
sg178
(I567
I600
tp308
ssS'db_backend'
p309
NsS'rc38_edit'
p310
(dp311
S'position'
p312
(I0
I0
tp313
sS'window_size'
p314
(I472
I524
tp315
ssS'rc174_edit'
p316
(dp317
S'position'
p318
(I0
I0
tp319
sS'window_size'
p320
(I567
I600
tp321
ssS'rc29_edit'
p322
(dp323
g138
(I4
I49
tp324
sg140
(I567
I600
tp325
ssS'rc1_edit'
p326
(dp327
g70
(I0
I0
tp328
sS'window_size'
p329
(I670
I510
tp330
ssS'rc3_edit'
p331
(dp332
S'position'
p333
(I0
I0
tp334
sS'window_size'
p335
(I800
I500
tp336
ssS'rc172'
p337
(dp338
S'position'
p339
(I0
I0
tp340
sS'window_size'
p341
(I730
I550
tp342
ssS'rc173'
p343
(dp344
g16
(I0
I0
tp345
sg18
(I730
I550
tp346
ssS'rc19_edit'
p347
(dp348
S'position'
p349
(I0
I0
tp350
sS'window_size'
p351
(I619
I514
tp352
ssS'rc176'
p353
(dp354
S'position'
p355
(I27
I84
tp356
sS'window_size'
p357
(I730
I550
tp358
ssS'rc174'
p359
(dp360
g318
(I0
I0
tp361
sg320
(I730
I550
tp362
ssS'rc175'
p363
(dp364
S'position'
p365
(I0
I0
tp366
sS'window_size'
p367
(I730
I550
tp368
ssS'rc100_edit'
p369
(dp370
S'position'
p371
(I0
I0
tp372
sS'window_size'
p373
(I567
I600
tp374
ssS'rc4_edit'
p375
(dp376
g333
(I0
I0
tp377
sg335
(I800
I500
tp378
ssS'rc181_edit'
p379
(dp380
S'position'
p381
(I0
I0
tp382
sS'window_size'
p383
(I599
I600
tp384
ssS'rc176_edit'
p385
(dp386
g355
(I0
I0
tp387
sg357
(I567
I600
tp388
ssS'rc169_edit'
p389
(dp390
g281
(I0
I0
tp391
sg283
(I567
I600
tp392
ssS'rc145_edit'
p393
(dp394
S'position'
p395
(I0
I0
tp396
sS'window_size'
p397
(I567
I600
tp398
ssS'rc45_edit'
p399
(dp400
S'position'
p401
(I92
I107
tp402
sS'window_size'
p403
(I472
I600
tp404
ssS'shophpaned1'
p405
(dp406
g70
I374
ssS'rc149_edit'
p407
(dp408
S'position'
p409
(I0
I0
tp410
sS'window_size'
p411
(I567
I600
tp412
ssS'rc187_edit'
p413
(dp414
S'position'
p415
(I0
I0
tp416
sS'window_size'
p417
(I618
I535
tp418
ssS'rc182_edit'
p419
(dp420
S'position'
p421
(I0
I0
tp422
sS'window_size'
p423
(I567
I600
tp424
ssS'rc151'
p425
(dp426
S'position'
p427
(I0
I0
tp428
sS'window_size'
p429
(I730
I550
tp430
ssS'shopGuiWin'
p431
(dp432
g70
(I4
I49
tp433
sg329
(I800
I600
tp434
ssS'rc140_edit'
p435
(dp436
S'position'
p437
(I0
I0
tp438
sS'window_size'
p439
(I567
I600
tp440
ssS'rc_hide_handlebox'
p441
I00
sS'rc149'
p442
(dp443
g409
(I0
I0
tp444
sg411
(I730
I550
tp445
ssS'rc148'
p446
(dp447
S'position'
p448
(I0
I0
tp449
sS'window_size'
p450
(I730
I550
tp451
ssS'search_as_you_type'
p452
I01
sS'rc146'
p453
(dp454
g120
(I0
I0
tp455
sg122
(I730
I550
tp456
ssS'rc145'
p457
(dp458
g395
(I0
I0
tp459
sg397
(I730
I550
tp460
ssS'rc144'
p461
(dp462
S'position'
p463
(I0
I0
tp464
sS'window_size'
p465
(I730
I550
tp466
ssS'rc143'
p467
(dp468
g126
(I0
I0
tp469
sg128
(I730
I550
tp470
ssS'rc142'
p471
(dp472
g79
(I0
I0
tp473
sg81
(I730
I550
tp474
ssS'rc141'
p475
(dp476
S'position'
p477
(I0
I0
tp478
sS'window_size'
p479
(I730
I550
tp480
ssS'rc140'
p481
(dp482
g437
(I0
I0
tp483
sg439
(I730
I550
tp484
ssS'rc133_edit'
p485
(dp486
g64
(I0
I0
tp487
sg66
(I567
I600
tp488
ssS'rc172_edit'
p489
(dp490
g339
(I0
I0
tp491
sg341
(I615
I580
tp492
ssS'rc175_edit'
p493
(dp494
g365
(I0
I0
tp495
sg367
(I567
I600
tp496
ssS'rc178_edit'
p497
(dp498
S'position'
p499
(I0
I0
tp500
sS'window_size'
p501
(I567
I600
tp502
ssS'rc166_edit'
p503
(dp504
g64
(I0
I0
tp505
sg66
(I567
I650
tp506
ssS'search_regexp'
p507
I01
sS'rc56_edit'
p508
(dp509
g46
(I0
I0
tp510
sg48
(I567
I600
tp511
ssS'rc9'
p512
(dp513
S'position'
p514
(I0
I0
tp515
sS'window_size'
p516
(I730
I550
tp517
ssS'rc4'
p518
(dp519
g333
(I4
I49
tp520
sg335
(I730
I550
tp521
ssS'rc35_edit'
p522
(dp523
g312
(I0
I0
tp524
sg314
(I567
I600
tp525
ssS'rc6'
p526
(dp527
g88
(I0
I0
tp528
sg90
(I730
I550
tp529
ssS'rc1'
p530
(dp531
g70
(I0
I0
tp532
sg329
(I730
I550
tp533
ssS'rc2'
p534
(dp535
g70
(I0
I0
tp536
sg329
(I730
I550
tp537
ssS'rc3'
p538
(dp539
g333
(I0
I0
tp540
sg335
(I730
I550
tp541
ssS'rc90_edit'
p542
(dp543
S'position'
p544
(I0
I0
tp545
sS'window_size'
p546
(I567
I600
tp547
ssS'rc183_edit'
p548
(dp549
S'position'
p550
(I0
I0
tp551
sS'window_size'
p552
(I567
I600
tp553
ssS'rc28_edit'
p554
(dp555
g114
(I4
I49
tp556
sg116
(I594
I600
tp557
ssS'rc158'
p558
(dp559
g301
(I0
I0
tp560
sg303
(I730
I550
tp561
ssS'rc37_edit'
p562
(dp563
S'position'
p564
(I4
I49
tp565
sS'window_size'
p566
(I567
I600
tp567
ssS'rc189_edit'
p568
(dp569
S'position'
p570
(I4
I49
tp571
sS'window_size'
p572
(I567
I600
tp573
ssS'rc128_edit'
p574
(dp575
S'position'
p576
(I0
I0
tp577
sS'window_size'
p578
(I567
I600
tp579
ssS'rc129_edit'
p580
(dp581
S'position'
p582
(I0
I0
tp583
sS'window_size'
p584
(I567
I600
tp585
ssS'rc126_edit'
p586
(dp587
g295
(I0
I0
tp588
sg297
(I567
I600
tp589
ssS'rc33_edit'
p590
(dp591
g312
(I0
I0
tp592
sg314
(I567
I600
tp593
ssS'rc148_edit'
p594
(dp595
g448
(I0
I0
tp596
sg450
(I567
I600
tp597
ssS'rc84_edit'
p598
(dp599
g401
(I4
I49
tp600
sg403
(I500
I600
tp601
ssS'rc144_edit'
p602
(dp603
g463
(I0
I0
tp604
sg465
(I567
I600
tp605
ssS'rectree_column_order'
p606
(dp607
sS'rc26_edit'
p608
(dp609
g138
(I4
I49
tp610
sg140
(I633
I600
tp611
ssS'rc27_edit'
p612
(dp613
g202
(I0
I0
tp614
sg204
(I567
I535
tp615
ssS'rc_hide_cooktimeLabel'
p616
I01
sS'rc146_edit'
p617
(dp618
g120
(I0
I0
tp619
sg122
(I567
I600
tp620
ssS'rc23'
p621
(dp622
g3
(I0
I0
tp623
sg5
(I730
I550
tp624
ssS'rc9_edit'
p625
(dp626
g514
(I0
I0
tp627
sg516
(I378
I300
tp628
ssS'rc25'
p629
(dp630
g3
(I4
I49
tp631
sg5
(I730
I550
tp632
ssS'rc15_edit'
p633
(dp634
S'position'
p635
(I0
I0
tp636
sS'window_size'
p637
(I543
I529
tp638
ssS'rc141_edit'
p639
(dp640
g477
(I0
I0
tp641
sg479
(I567
I600
tp642
ssS'rc24_edit'
p643
(dp644
g3
(I0
I0
tp645
sg5
(I543
I600
tp646
ssS'rc137_edit'
p647
(dp648
g40
(I0
I0
tp649
sg42
(I567
I600
tp650
ssS'rc129'
p651
(dp652
g582
(I0
I0
tp653
sg584
(I730
I550
tp654
ssS'rc128'
p655
(dp656
g576
(I0
I0
tp657
sg578
(I730
I550
tp658
ssS'rc125'
p659
(dp660
g3
(I0
I0
tp661
sg5
(I730
I550
tp662
ssS'rc127'
p663
(dp664
g295
(I0
I0
tp665
sg297
(I730
I550
tp666
ssS'rc126'
p667
(dp668
g295
(I0
I0
tp669
sg297
(I730
I550
tp670
ssS'rc151_edit'
p671
(dp672
g427
(I0
I0
tp673
sg429
(I567
I600
tp674
ssS'rc31_edit'
p675
(dp676
g138
(I4
I49
tp677
sg140
(I567
I535
tp678
ssS'rc32_edit'
p679
(dp680
S'position'
p681
(I0
I0
tp682
sS'window_size'
p683
(I567
I600
tp684
ssS'rc15'
p685
(dp686
g635
(I0
I0
tp687
sg637
(I730
I550
tp688
ssS'rc18_edit'
p689
(dp690
S'position'
p691
(I0
I0
tp692
sS'window_size'
p693
(I617
I558
tp694
ssS'rc131_edit'
p695
(dp696
g73
(I0
I0
tp697
sg75
(I567
I600
tp698
ssS'regexpTog'
p699
(dp700
g85
I00
ssS'rc18'
p701
(dp702
g691
(I0
I0
tp703
sg693
(I730
I550
tp704
ssS'rc19'
p705
(dp706
g349
(I0
I0
tp707
sg351
(I730
I550
tp708
ssS'app_window'
p709
(dp710
g70
(I375
I130
tp711
sg329
(I761
I571
tp712
ssS'rc188_edit'
p713
(dp714
g132
(I0
I0
tp715
sg134
(I567
I600
tp716
ssS'rc2_edit'
p717
(dp718
g70
(I0
I0
tp719
sg329
(I800
I500
tp720
ssS'rc10'
p721
(dp722
g188
(I0
I0
tp723
sg190
(I730
I550
tp724
ssS'rc11'
p725
(dp726
g182
(I0
I0
tp727
sg184
(I730
I550
tp728
ss.